target datalayout = "e-m:e-p270:32:32-p271:32:32-p272:64:64-i64:64-i128:128-f80:128-n8:16:32:64-S128"
target triple = "x86_64-pc-linux-gnu"

%"struct.std::array" = type { [2 x i64] }
%"class.arrow::GenericBasicDecimal" = type { %"struct.std::array" }
%"class.arrow::BasicDecimal128" = type { %"class.arrow::GenericBasicDecimal" }

; Function Attrs: mustprogress nounwind uwtable
define weak_odr void @_ZN5arrow19GenericBasicDecimalINS_15BasicDecimal128ELi128ELi2EEC2ERKSt5arrayImLm2EE(ptr noundef nonnull align 8 dereferenceable(16) %0, ptr noundef nonnull align 8 dereferenceable(16) %1) unnamed_addr #0 comdat($_ZN5arrow19GenericBasicDecimalINS_15BasicDecimal128ELi128ELi2EEC5ERKSt5arrayImLm2EE) align 2 {
  %3 = alloca ptr, align 8
  %4 = alloca ptr, align 8
  store ptr %0, ptr %3, align 8, !tbaa !3
  store ptr %1, ptr %4, align 8, !tbaa !10
  %5 = load ptr, ptr %3, align 8
  %6 = getelementptr inbounds nuw %"class.arrow::GenericBasicDecimal", ptr %5, i32 0, i32 0
  %7 = load ptr, ptr %4, align 8, !tbaa !10
  call void @llvm.memcpy.p0.p0.i64(ptr align 8 %6, ptr align 8 %7, i64 16, i1 false), !tbaa.struct !12
  ret void
}

; Function Attrs: mustprogress nounwind uwtable
define linkonce_odr noundef nonnull align 8 dereferenceable(8) ptr @_ZNSt14__array_traitsImLm2EE6_S_refERA2_Kmm(ptr noundef nonnull align 8 dereferenceable(16) %0, i64 noundef %1) #0 comdat align 2 {
  %3 = alloca ptr, align 8
  %4 = alloca i64, align 8
  store ptr %0, ptr %3, align 8, !tbaa !239
  store i64 %1, ptr %4, align 8, !tbaa !8
  %5 = load ptr, ptr %3, align 8, !tbaa !239
  %6 = load i64, ptr %4, align 8, !tbaa !8
  %7 = getelementptr inbounds nuw [2 x i64], ptr %5, i64 0, i64 %6
  ret ptr %7
}

; Function Attrs: inlinehint mustprogress nounwind uwtable
define linkonce_odr void @_ZN5arrow15BasicDecimal128CI2NS_19GenericBasicDecimalIS0_Li128ELi2EEEERKSt5arrayImLm2EE(ptr noundef nonnull align 8 dereferenceable(16) %0, ptr noundef nonnull align 8 dereferenceable(16) %1) unnamed_addr #3 comdat align 2 {
  %3 = alloca ptr, align 8
  %4 = alloca ptr, align 8
  store ptr %0, ptr %3, align 8, !tbaa !154
  store ptr %1, ptr %4, align 8, !tbaa !10
  %5 = load ptr, ptr %3, align 8
  %6 = load ptr, ptr %4, align 8
  call void @_ZN5arrow19GenericBasicDecimalINS_15BasicDecimal128ELi128ELi2EEC2ERKSt5arrayImLm2EE(ptr noundef nonnull align 8 dereferenceable(16) %5, ptr noundef nonnull align 8 dereferenceable(16) %6) #12
  ret void
}

; Function Attrs: mustprogress nounwind uwtable
define linkonce_odr noundef nonnull align 8 dereferenceable(8) ptr @_ZNKSt5arrayImLm2EEixEm(ptr noundef nonnull align 8 dereferenceable(16) %0, i64 noundef %1) #0 comdat align 2 {
  %3 = alloca ptr, align 8
  %4 = alloca i64, align 8
  store ptr %0, ptr %3, align 8, !tbaa !10
  store i64 %1, ptr %4, align 8, !tbaa !8
  %5 = load ptr, ptr %3, align 8
  %6 = getelementptr inbounds nuw %"struct.std::array", ptr %5, i32 0, i32 0
  %7 = load i64, ptr %4, align 8, !tbaa !8
  %8 = call noundef nonnull align 8 dereferenceable(8) ptr @_ZNSt14__array_traitsImLm2EE6_S_refERA2_Kmm(ptr noundef nonnull align 8 dereferenceable(16) %6, i64 noundef %7) #12
  ret ptr %8
}

; Function Attrs: mustprogress nounwind uwtable
define linkonce_odr void @_ZN5arrow15BasicDecimal128C2Elm(ptr noundef nonnull align 8 dereferenceable(16) %0, i64 noundef %1, i64 noundef %2) unnamed_addr #0 comdat align 2 {
  %4 = alloca ptr, align 8
  %5 = alloca i64, align 8
  %6 = alloca i64, align 8
  %7 = alloca %"struct.std::array", align 8
  store ptr %0, ptr %4, align 8, !tbaa !154
  store i64 %1, ptr %5, align 8, !tbaa !8
  store i64 %2, ptr %6, align 8, !tbaa !8
  %8 = load ptr, ptr %4, align 8
  call void @llvm.lifetime.start.p0(i64 16, ptr %7) #12
  %9 = getelementptr inbounds nuw %"struct.std::array", ptr %7, i32 0, i32 0
  %10 = load i64, ptr %6, align 8, !tbaa !8
  store i64 %10, ptr %9, align 8, !tbaa !8
  %11 = getelementptr inbounds i64, ptr %9, i64 1
  %12 = load i64, ptr %5, align 8, !tbaa !8
  store i64 %12, ptr %11, align 8, !tbaa !8
  call void @_ZN5arrow15BasicDecimal128CI2NS_19GenericBasicDecimalIS0_Li128ELi2EEEERKSt5arrayImLm2EE(ptr noundef nonnull align 8 dereferenceable(16) %8, ptr noundef nonnull align 8 dereferenceable(16) %7) #12
  call void @llvm.lifetime.end.p0(i64 16, ptr %7) #12
  ret void
}

; Function Attrs: mustprogress nounwind uwtable
define linkonce_odr noundef i64 @_ZN5arrow8internal13SafeSignedAddIlEET_S2_S2_(i64 noundef %0, i64 noundef %1) #0 comdat {
  %3 = alloca i64, align 8
  %4 = alloca i64, align 8
  store i64 %0, ptr %3, align 8, !tbaa !8
  store i64 %1, ptr %4, align 8, !tbaa !8
  %5 = load i64, ptr %3, align 8, !tbaa !8
  %6 = load i64, ptr %4, align 8, !tbaa !8
  %7 = add i64 %5, %6
  ret i64 %7
}

; Function Attrs: mustprogress nounwind uwtable
define linkonce_odr noundef i64 @_ZNK5arrow15BasicDecimal1289high_bitsEv(ptr noundef nonnull align 8 dereferenceable(16) %0) #0 comdat align 2 {
  %2 = alloca ptr, align 8
  store ptr %0, ptr %2, align 8, !tbaa !154
  %3 = load ptr, ptr %2, align 8
  %4 = getelementptr inbounds nuw %"class.arrow::GenericBasicDecimal", ptr %3, i32 0, i32 0
  %5 = call noundef nonnull align 8 dereferenceable(8) ptr @_ZNKSt5arrayImLm2EEixEm(ptr noundef nonnull align 8 dereferenceable(16) %4, i64 noundef 1) #12
  %6 = load i64, ptr %5, align 8, !tbaa !8
  ret i64 %6
}

; Function Attrs: mustprogress nounwind uwtable
define linkonce_odr noundef i64 @_ZNK5arrow15BasicDecimal1288low_bitsEv(ptr noundef nonnull align 8 dereferenceable(16) %0) #0 comdat align 2 {
  %2 = alloca ptr, align 8
  store ptr %0, ptr %2, align 8, !tbaa !154
  %3 = load ptr, ptr %2, align 8
  %4 = getelementptr inbounds nuw %"class.arrow::GenericBasicDecimal", ptr %3, i32 0, i32 0
  %5 = call noundef nonnull align 8 dereferenceable(8) ptr @_ZNKSt5arrayImLm2EEixEm(ptr noundef nonnull align 8 dereferenceable(16) %4, i64 noundef 0) #12
  %6 = load i64, ptr %5, align 8, !tbaa !8
  ret i64 %6
}

; Function Attrs: mustprogress uwtable
define noundef nonnull align 8 dereferenceable(16) ptr @_ZN5arrow15BasicDecimal1286NegateEv(ptr noundef nonnull align 8 dereferenceable(16) %0) #6 align 2 {
  %2 = alloca ptr, align 8
  %3 = alloca i64, align 8
  %4 = alloca i64, align 8
  %5 = alloca %"class.arrow::BasicDecimal128", align 8
  store ptr %0, ptr %2, align 8, !tbaa !154
  %6 = load ptr, ptr %2, align 8
  call void @llvm.lifetime.start.p0(i64 8, ptr %3) #12
  %7 = call noundef i64 @_ZNK5arrow15BasicDecimal1288low_bitsEv(ptr noundef nonnull align 8 dereferenceable(16) %6)
  %8 = xor i64 %7, -1
  %9 = add i64 %8, 1
  store i64 %9, ptr %3, align 8, !tbaa !8
  call void @llvm.lifetime.start.p0(i64 8, ptr %4) #12
  %10 = call noundef i64 @_ZNK5arrow15BasicDecimal1289high_bitsEv(ptr noundef nonnull align 8 dereferenceable(16) %6)
  %11 = xor i64 %10, -1
  store i64 %11, ptr %4, align 8, !tbaa !8
  %12 = load i64, ptr %3, align 8, !tbaa !8
  %13 = icmp eq i64 %12, 0
  br i1 %13, label %14, label %17

14:                                               ; preds = %1
  %15 = load i64, ptr %4, align 8, !tbaa !8
  %16 = call noundef i64 @_ZN5arrow8internal13SafeSignedAddIlEET_S2_S2_(i64 noundef %15, i64 noundef 1)
  store i64 %16, ptr %4, align 8, !tbaa !8
  br label %17

17:                                               ; preds = %14, %1
  call void @llvm.lifetime.start.p0(i64 16, ptr %5) #12
  %18 = load i64, ptr %4, align 8, !tbaa !8
  %19 = load i64, ptr %3, align 8, !tbaa !8
  call void @_ZN5arrow15BasicDecimal128C2Elm(ptr noundef nonnull align 8 dereferenceable(16) %5, i64 noundef %18, i64 noundef %19) #12
  call void @llvm.memcpy.p0.p0.i64(ptr align 8 %6, ptr align 8 %5, i64 16, i1 false)
  call void @llvm.lifetime.end.p0(i64 16, ptr %5) #12
  call void @llvm.lifetime.end.p0(i64 8, ptr %4) #12
  call void @llvm.lifetime.end.p0(i64 8, ptr %3) #12
  ret ptr %6
}