; Function Attrs: mustprogress nofree norecurse nosync nounwind willreturn memory(argmem: readwrite) uwtable
define noundef nonnull align 8 dereferenceable(16) ptr @_ZN5arrow15BasicDecimal1286NegateEv(ptr noundef nonnull returned align 8 captures(ret: address, provenance) dereferenceable(16) %0) local_unnamed_addr #5 align 2 {
  %2 = load i64, ptr %0, align 8, !tbaa !7
  %3 = getelementptr inbounds nuw i8, ptr %0, i64 8
  %4 = load i64, ptr %3, align 8, !tbaa !7
  %5 = xor i64 %4, -1
  %6 = icmp eq i64 %2, 0
  %7 = sub i64 0, %4
  %8 = sub i64 0, %2
  %.sroa.6.0 = select i1 %6, i64 %7, i64 %5
  store i64 %8, ptr %0, align 8
  store i64 %.sroa.6.0, ptr %3, align 8
  ret ptr %0
}